#include <math.h>
#include <stdio.h>
#include <stdlib.h>
#include <string.h>


int main()
{
	char str[101]={'\0'};
	char a[101]={'\0'}; 
	int i,m=0,n=0;
	gets(str);
	for(i=0;str[i]!='\0';i++)
	{
		if(str[i]!=' ')
		{
			a[i-n]=str[i];
			m=0;
		}
		else if(str[i]==' ' && m==0)
		{
			a[i-n]=str[i];
			m=1;
		}
		else if(str[i]==' ' && m==1)
		n++;
	}
	puts(a);	return 0;
} 
